target datalayout = "e-m:e-p270:32:32-p271:32:32-p272:64:64-i64:64-i128:128-f80:128-n8:16:32:64-S128"
target triple = "x86_64-pc-linux-gnu"

@H5S_init_g = external global i8, align 1
@H5_libterm_g = external global i8, align 1
@.str = private unnamed_addr constant [101 x i8] c"generated/home/dtcxzyw/WorkSpace/Projects/compilers/llvm-opt-benchmark/bench/hdf5/hdf5/src/H5Snone.c\00", align 1
@H5E_DATASPACE_g = external global i64, align 8
@H5E_CANTDELETE_g = external global i64, align 8
@.str.6 = private unnamed_addr constant [23 x i8] c"can't change selection\00", align 1
@__func__.H5S__none_deserialize = private unnamed_addr constant [22 x i8] c"H5S__none_deserialize\00", align 1
@H5E_CANTCREATE_g = external global i64, align 8
@.str.8 = private unnamed_addr constant [23 x i8] c"can't create dataspace\00", align 1
@H5E_OVERFLOW_g = external global i64, align 8
@.str.9 = private unnamed_addr constant [49 x i8] c"buffer overflow while decoding selection version\00", align 1
@H5E_BADVALUE_g = external global i64, align 8
@.str.10 = private unnamed_addr constant [38 x i8] c"bad version number for none selection\00", align 1
@.str.11 = private unnamed_addr constant [48 x i8] c"buffer overflow while decoding selection header\00", align 1
@H5E_CANTFREE_g = external global i64, align 8
@.str.12 = private unnamed_addr constant [22 x i8] c"can't close dataspace\00", align 1

; Function Attrs: nounwind uwtable
define internal i32 @H5S__none_deserialize(ptr noundef %0, ptr noundef %1, i64 noundef %2, i1 noundef zeroext %3) #0 {
  %5 = alloca ptr, align 8
  %6 = alloca ptr, align 8
  %7 = alloca i64, align 8
  %8 = alloca i8, align 1
  %9 = alloca ptr, align 8
  %10 = alloca i32, align 4
  %11 = alloca i32, align 4
  %12 = alloca ptr, align 8
  %13 = alloca i8, align 1
  store ptr %0, ptr %5, align 8, !tbaa !29
  store ptr %1, ptr %6, align 8, !tbaa !21
  store i64 %2, ptr %7, align 8, !tbaa !31
  %14 = zext i1 %3 to i8
  store i8 %14, ptr %8, align 1, !tbaa !8
  call void @llvm.lifetime.start.p0(i64 8, ptr %9) #5
  store ptr null, ptr %9, align 8, !tbaa !3
  call void @llvm.lifetime.start.p0(i64 4, ptr %10) #5
  call void @llvm.lifetime.start.p0(i64 4, ptr %11) #5
  store i32 0, ptr %11, align 4, !tbaa !32
  call void @llvm.lifetime.start.p0(i64 8, ptr %12) #5
  %15 = load ptr, ptr %6, align 8, !tbaa !21
  %16 = load ptr, ptr %15, align 8, !tbaa !23
  %17 = load i64, ptr %7, align 8, !tbaa !31
  %18 = getelementptr inbounds nuw i8, ptr %16, i64 %17
  %19 = getelementptr inbounds i8, ptr %18, i64 -1
  store ptr %19, ptr %12, align 8, !tbaa !23
  call void @llvm.lifetime.start.p0(i64 1, ptr %13) #5
  store i8 0, ptr %13, align 1, !tbaa !8
  %20 = load i8, ptr @H5S_init_g, align 1, !tbaa !8, !range !10, !noundef !11
  %21 = trunc i8 %20 to i1
  br i1 %21, label %26, label %22

22:                                               ; preds = %4
  %23 = load i8, ptr @H5_libterm_g, align 1, !tbaa !8, !range !10, !noundef !11
  %24 = trunc i8 %23 to i1
  %25 = xor i1 %24, true
  br label %26

26:                                               ; preds = %22, %4
  %27 = phi i1 [ true, %4 ], [ %25, %22 ]
  %28 = xor i1 %27, true
  %29 = xor i1 %28, true
  %30 = zext i1 %29 to i32
  %31 = sext i32 %30 to i64
  %32 = call i64 @llvm.expect.i64(i64 %31, i64 1)
  %33 = icmp ne i64 %32, 0
  br i1 %33, label %34, label %270

34:                                               ; preds = %26
  %35 = load ptr, ptr %5, align 8, !tbaa !29
  %36 = load ptr, ptr %35, align 8, !tbaa !3
  %37 = icmp ne ptr %36, null
  br i1 %37, label %61, label %38

38:                                               ; preds = %34
  %39 = call ptr @H5S_create(i32 noundef 1)
  store ptr %39, ptr %9, align 8, !tbaa !3
  %40 = icmp eq ptr null, %39
  br i1 %40, label %41, label %60

41:                                               ; preds = %38
  br label %42

42:                                               ; preds = %41
  br label %43

43:                                               ; preds = %42
  br label %44

44:                                               ; preds = %43
  %45 = load i64, ptr @H5E_DATASPACE_g, align 8, !tbaa !31
  %46 = load i64, ptr @H5E_CANTCREATE_g, align 8, !tbaa !31
  %47 = call i32 (ptr, ptr, i32, i64, i64, ptr, ...) @H5E_printf_stack(ptr noundef @.str, ptr noundef @__func__.H5S__none_deserialize, i32 noundef 600, i64 noundef %45, i64 noundef %46, ptr noundef @.str.8)
  br label %48

48:                                               ; preds = %44
  br label %49

49:                                               ; preds = %48
  store i8 1, ptr %13, align 1, !tbaa !8
  %50 = load i8, ptr %13, align 1, !tbaa !8, !range !10, !noundef !11
  %51 = trunc i8 %50 to i1
  %52 = zext i1 %51 to i8
  store i8 %52, ptr %13, align 1, !tbaa !8
  br label %53

53:                                               ; preds = %49
  br label %54

54:                                               ; preds = %53
  br label %55

55:                                               ; preds = %54
  store i32 -1, ptr %11, align 4, !tbaa !32
  br label %241

56:                                               ; No predecessors!
  br label %57

57:                                               ; preds = %56
  br label %58

58:                                               ; preds = %57
  br label %59

59:                                               ; preds = %58
  br label %60

60:                                               ; preds = %59, %38
  br label %64

61:                                               ; preds = %34
  %62 = load ptr, ptr %5, align 8, !tbaa !29
  %63 = load ptr, ptr %62, align 8, !tbaa !3
  store ptr %63, ptr %9, align 8, !tbaa !3
  br label %64

64:                                               ; preds = %61, %60
  %65 = load i8, ptr %8, align 1, !tbaa !8, !range !10, !noundef !11
  %66 = trunc i8 %65 to i1
  br i1 %66, label %67, label %68

67:                                               ; preds = %64
  br i1 false, label %82, label %101

68:                                               ; preds = %64
  %69 = load ptr, ptr %6, align 8, !tbaa !21
  %70 = load ptr, ptr %69, align 8, !tbaa !23
  %71 = load ptr, ptr %12, align 8, !tbaa !23
  %72 = icmp ugt ptr %70, %71
  br i1 %72, label %82, label %73

73:                                               ; preds = %68
  %74 = load ptr, ptr %12, align 8, !tbaa !23
  %75 = load ptr, ptr %6, align 8, !tbaa !21
  %76 = load ptr, ptr %75, align 8, !tbaa !23
  %77 = ptrtoint ptr %74 to i64
  %78 = ptrtoint ptr %76 to i64
  %79 = sub i64 %77, %78
  %80 = add nsw i64 %79, 1
  %81 = icmp ugt i64 4, %80
  br i1 %81, label %82, label %101

82:                                               ; preds = %73, %68, %67
  br label %83

83:                                               ; preds = %82
  br label %84

84:                                               ; preds = %83
  br label %85

85:                                               ; preds = %84
  %86 = load i64, ptr @H5E_DATASPACE_g, align 8, !tbaa !31
  %87 = load i64, ptr @H5E_OVERFLOW_g, align 8, !tbaa !31
  %88 = call i32 (ptr, ptr, i32, i64, i64, ptr, ...) @H5E_printf_stack(ptr noundef @.str, ptr noundef @__func__.H5S__none_deserialize, i32 noundef 607, i64 noundef %86, i64 noundef %87, ptr noundef @.str.9)
  br label %89

89:                                               ; preds = %85
  br label %90

90:                                               ; preds = %89
  store i8 1, ptr %13, align 1, !tbaa !8
  %91 = load i8, ptr %13, align 1, !tbaa !8, !range !10, !noundef !11
  %92 = trunc i8 %91 to i1
  %93 = zext i1 %92 to i8
  store i8 %93, ptr %13, align 1, !tbaa !8
  br label %94

94:                                               ; preds = %90
  br label %95

95:                                               ; preds = %94
  br label %96

96:                                               ; preds = %95
  store i32 -1, ptr %11, align 4, !tbaa !32
  br label %241

97:                                               ; No predecessors!
  br label %98

98:                                               ; preds = %97
  br label %99

99:                                               ; preds = %98
  br label %100

100:                                              ; preds = %99
  br label %101

101:                                              ; preds = %100, %73, %67
  br label %102

102:                                              ; preds = %101
  %103 = load ptr, ptr %6, align 8, !tbaa !21
  %104 = load ptr, ptr %103, align 8, !tbaa !23
  %105 = load i8, ptr %104, align 1, !tbaa !28
  %106 = zext i8 %105 to i32
  %107 = and i32 %106, 255
  store i32 %107, ptr %10, align 4, !tbaa !32
  %108 = load ptr, ptr %6, align 8, !tbaa !21
  %109 = load ptr, ptr %108, align 8, !tbaa !23
  %110 = getelementptr inbounds nuw i8, ptr %109, i32 1
  store ptr %110, ptr %108, align 8, !tbaa !23
  %111 = load ptr, ptr %6, align 8, !tbaa !21
  %112 = load ptr, ptr %111, align 8, !tbaa !23
  %113 = load i8, ptr %112, align 1, !tbaa !28
  %114 = zext i8 %113 to i32
  %115 = and i32 %114, 255
  %116 = shl i32 %115, 8
  %117 = load i32, ptr %10, align 4, !tbaa !32
  %118 = or i32 %117, %116
  store i32 %118, ptr %10, align 4, !tbaa !32
  %119 = load ptr, ptr %6, align 8, !tbaa !21
  %120 = load ptr, ptr %119, align 8, !tbaa !23
  %121 = getelementptr inbounds nuw i8, ptr %120, i32 1
  store ptr %121, ptr %119, align 8, !tbaa !23
  %122 = load ptr, ptr %6, align 8, !tbaa !21
  %123 = load ptr, ptr %122, align 8, !tbaa !23
  %124 = load i8, ptr %123, align 1, !tbaa !28
  %125 = zext i8 %124 to i32
  %126 = and i32 %125, 255
  %127 = shl i32 %126, 16
  %128 = load i32, ptr %10, align 4, !tbaa !32
  %129 = or i32 %128, %127
  store i32 %129, ptr %10, align 4, !tbaa !32
  %130 = load ptr, ptr %6, align 8, !tbaa !21
  %131 = load ptr, ptr %130, align 8, !tbaa !23
  %132 = getelementptr inbounds nuw i8, ptr %131, i32 1
  store ptr %132, ptr %130, align 8, !tbaa !23
  %133 = load ptr, ptr %6, align 8, !tbaa !21
  %134 = load ptr, ptr %133, align 8, !tbaa !23
  %135 = load i8, ptr %134, align 1, !tbaa !28
  %136 = zext i8 %135 to i32
  %137 = and i32 %136, 255
  %138 = shl i32 %137, 24
  %139 = load i32, ptr %10, align 4, !tbaa !32
  %140 = or i32 %139, %138
  store i32 %140, ptr %10, align 4, !tbaa !32
  %141 = load ptr, ptr %6, align 8, !tbaa !21
  %142 = load ptr, ptr %141, align 8, !tbaa !23
  %143 = getelementptr inbounds nuw i8, ptr %142, i32 1
  store ptr %143, ptr %141, align 8, !tbaa !23
  br label %144

144:                                              ; preds = %102
  br label %145

145:                                              ; preds = %144
  %146 = load i32, ptr %10, align 4, !tbaa !32
  %147 = icmp ult i32 %146, 1
  br i1 %147, label %151, label %148

148:                                              ; preds = %145
  %149 = load i32, ptr %10, align 4, !tbaa !32
  %150 = icmp ugt i32 %149, 1
  br i1 %150, label %151, label %170

151:                                              ; preds = %148, %145
  br label %152

152:                                              ; preds = %151
  br label %153

153:                                              ; preds = %152
  br label %154

154:                                              ; preds = %153
  %155 = load i64, ptr @H5E_DATASPACE_g, align 8, !tbaa !31
  %156 = load i64, ptr @H5E_BADVALUE_g, align 8, !tbaa !31
  %157 = call i32 (ptr, ptr, i32, i64, i64, ptr, ...) @H5E_printf_stack(ptr noundef @.str, ptr noundef @__func__.H5S__none_deserialize, i32 noundef 611, i64 noundef %155, i64 noundef %156, ptr noundef @.str.10)
  br label %158

158:                                              ; preds = %154
  br label %159

159:                                              ; preds = %158
  store i8 1, ptr %13, align 1, !tbaa !8
  %160 = load i8, ptr %13, align 1, !tbaa !8, !range !10, !noundef !11
  %161 = trunc i8 %160 to i1
  %162 = zext i1 %161 to i8
  store i8 %162, ptr %13, align 1, !tbaa !8
  br label %163

163:                                              ; preds = %159
  br label %164

164:                                              ; preds = %163
  br label %165

165:                                              ; preds = %164
  store i32 -1, ptr %11, align 4, !tbaa !32
  br label %241

166:                                              ; No predecessors!
  br label %167

167:                                              ; preds = %166
  br label %168

168:                                              ; preds = %167
  br label %169

169:                                              ; preds = %168
  br label %170

170:                                              ; preds = %169, %148
  %171 = load i8, ptr %8, align 1, !tbaa !8, !range !10, !noundef !11
  %172 = trunc i8 %171 to i1
  br i1 %172, label %173, label %174

173:                                              ; preds = %170
  br i1 false, label %188, label %207

174:                                              ; preds = %170
  %175 = load ptr, ptr %6, align 8, !tbaa !21
  %176 = load ptr, ptr %175, align 8, !tbaa !23
  %177 = load ptr, ptr %12, align 8, !tbaa !23
  %178 = icmp ugt ptr %176, %177
  br i1 %178, label %188, label %179

179:                                              ; preds = %174
  %180 = load ptr, ptr %12, align 8, !tbaa !23
  %181 = load ptr, ptr %6, align 8, !tbaa !21
  %182 = load ptr, ptr %181, align 8, !tbaa !23
  %183 = ptrtoint ptr %180 to i64
  %184 = ptrtoint ptr %182 to i64
  %185 = sub i64 %183, %184
  %186 = add nsw i64 %185, 1
  %187 = icmp ugt i64 8, %186
  br i1 %187, label %188, label %207

188:                                              ; preds = %179, %174, %173
  br label %189

189:                                              ; preds = %188
  br label %190

190:                                              ; preds = %189
  br label %191

191:                                              ; preds = %190
  %192 = load i64, ptr @H5E_DATASPACE_g, align 8, !tbaa !31
  %193 = load i64, ptr @H5E_OVERFLOW_g, align 8, !tbaa !31
  %194 = call i32 (ptr, ptr, i32, i64, i64, ptr, ...) @H5E_printf_stack(ptr noundef @.str, ptr noundef @__func__.H5S__none_deserialize, i32 noundef 615, i64 noundef %192, i64 noundef %193, ptr noundef @.str.11)
  br label %195

195:                                              ; preds = %191
  br label %196

196:                                              ; preds = %195
  store i8 1, ptr %13, align 1, !tbaa !8
  %197 = load i8, ptr %13, align 1, !tbaa !8, !range !10, !noundef !11
  %198 = trunc i8 %197 to i1
  %199 = zext i1 %198 to i8
  store i8 %199, ptr %13, align 1, !tbaa !8
  br label %200

200:                                              ; preds = %196
  br label %201

201:                                              ; preds = %200
  br label %202

202:                                              ; preds = %201
  store i32 -1, ptr %11, align 4, !tbaa !32
  br label %241

203:                                              ; No predecessors!
  br label %204

204:                                              ; preds = %203
  br label %205

205:                                              ; preds = %204
  br label %206

206:                                              ; preds = %205
  br label %207

207:                                              ; preds = %206, %179, %173
  %208 = load ptr, ptr %6, align 8, !tbaa !21
  %209 = load ptr, ptr %208, align 8, !tbaa !23
  %210 = getelementptr inbounds i8, ptr %209, i64 8
  store ptr %210, ptr %208, align 8, !tbaa !23
  %211 = load ptr, ptr %9, align 8, !tbaa !3
  %212 = call i32 @H5S_select_none(ptr noundef %211)
  %213 = icmp slt i32 %212, 0
  br i1 %213, label %214, label %233

214:                                              ; preds = %207
  br label %215

215:                                              ; preds = %214
  br label %216

216:                                              ; preds = %215
  br label %217

217:                                              ; preds = %216
  %218 = load i64, ptr @H5E_DATASPACE_g, align 8, !tbaa !31
  %219 = load i64, ptr @H5E_CANTDELETE_g, align 8, !tbaa !31
  %220 = call i32 (ptr, ptr, i32, i64, i64, ptr, ...) @H5E_printf_stack(ptr noundef @.str, ptr noundef @__func__.H5S__none_deserialize, i32 noundef 620, i64 noundef %218, i64 noundef %219, ptr noundef @.str.6)
  br label %221

221:                                              ; preds = %217
  br label %222

222:                                              ; preds = %221
  store i8 1, ptr %13, align 1, !tbaa !8
  %223 = load i8, ptr %13, align 1, !tbaa !8, !range !10, !noundef !11
  %224 = trunc i8 %223 to i1
  %225 = zext i1 %224 to i8
  store i8 %225, ptr %13, align 1, !tbaa !8
  br label %226

226:                                              ; preds = %222
  br label %227

227:                                              ; preds = %226
  br label %228

228:                                              ; preds = %227
  store i32 -1, ptr %11, align 4, !tbaa !32
  br label %241

229:                                              ; No predecessors!
  br label %230

230:                                              ; preds = %229
  br label %231

231:                                              ; preds = %230
  br label %232

232:                                              ; preds = %231
  br label %233

233:                                              ; preds = %232, %207
  %234 = load ptr, ptr %5, align 8, !tbaa !29
  %235 = load ptr, ptr %234, align 8, !tbaa !3
  %236 = icmp ne ptr %235, null
  br i1 %236, label %240, label %237

237:                                              ; preds = %233
  %238 = load ptr, ptr %9, align 8, !tbaa !3
  %239 = load ptr, ptr %5, align 8, !tbaa !29
  store ptr %238, ptr %239, align 8, !tbaa !3
  br label %240

240:                                              ; preds = %237, %233
  br label %241

241:                                              ; preds = %240, %228, %202, %165, %96, %55
  %242 = load ptr, ptr %5, align 8, !tbaa !29
  %243 = load ptr, ptr %242, align 8, !tbaa !3
  %244 = icmp ne ptr %243, null
  br i1 %244, label %269, label %245

245:                                              ; preds = %241
  %246 = load ptr, ptr %9, align 8, !tbaa !3
  %247 = icmp ne ptr %246, null
  br i1 %247, label %248, label %269

248:                                              ; preds = %245
  %249 = load ptr, ptr %9, align 8, !tbaa !3
  %250 = call i32 @H5S_close(ptr noundef %249)
  %251 = icmp slt i32 %250, 0
  br i1 %251, label %252, label %268

252:                                              ; preds = %248
  br label %253

253:                                              ; preds = %252
  br label %254

254:                                              ; preds = %253
  br label %255

255:                                              ; preds = %254
  %256 = load i64, ptr @H5E_DATASPACE_g, align 8, !tbaa !31
  %257 = load i64, ptr @H5E_CANTFREE_g, align 8, !tbaa !31
  %258 = call i32 (ptr, ptr, i32, i64, i64, ptr, ...) @H5E_printf_stack(ptr noundef @.str, ptr noundef @__func__.H5S__none_deserialize, i32 noundef 630, i64 noundef %256, i64 noundef %257, ptr noundef @.str.12)
  br label %259

259:                                              ; preds = %255
  br label %260

260:                                              ; preds = %259
  store i8 1, ptr %13, align 1, !tbaa !8
  %261 = load i8, ptr %13, align 1, !tbaa !8, !range !10, !noundef !11
  %262 = trunc i8 %261 to i1
  %263 = zext i1 %262 to i8
  store i8 %263, ptr %13, align 1, !tbaa !8
  br label %264

264:                                              ; preds = %260
  br label %265

265:                                              ; preds = %264
  store i32 -1, ptr %11, align 4, !tbaa !32
  br label %266

266:                                              ; preds = %265
  br label %267

267:                                              ; preds = %266
  br label %268

268:                                              ; preds = %267, %248
  br label %269

269:                                              ; preds = %268, %245, %241
  br label %270

270:                                              ; preds = %269, %26
  %271 = load i32, ptr %11, align 4, !tbaa !32
  call void @llvm.lifetime.end.p0(i64 1, ptr %13) #5
  call void @llvm.lifetime.end.p0(i64 8, ptr %12) #5
  call void @llvm.lifetime.end.p0(i64 4, ptr %11) #5
  call void @llvm.lifetime.end.p0(i64 4, ptr %10) #5
  call void @llvm.lifetime.end.p0(i64 8, ptr %9) #5
  ret i32 %271
}