; Function Attrs: nounwind uwtable
define internal range(i32 -1, 1) i32 @H5S__none_deserialize(ptr noundef captures(none) %0, ptr noundef captures(none) %1, i64 noundef %2, i1 noundef zeroext %3) #3 {
  %5 = load ptr, ptr %1, align 8, !tbaa !20
  %6 = getelementptr inbounds nuw i8, ptr %5, i64 %2
  %7 = getelementptr inbounds i8, ptr %6, i64 -1
  %8 = load i8, ptr @H5S_init_g, align 1, !tbaa !3, !range !7, !noundef !8
  %9 = trunc nuw i8 %8 to i1
  %10 = load i8, ptr @H5_libterm_g, align 1, !range !7
  %11 = trunc nuw i8 %10 to i1
  %12 = xor i1 %11, true
  %13 = select i1 %9, i1 true, i1 %12
  br i1 %13, label %14, label %.thread59, !prof !9

14:                                               ; preds = %4
  %15 = load ptr, ptr %0, align 8, !tbaa !26
  %.not = icmp eq ptr %15, null
  br i1 %.not, label %16, label %22

16:                                               ; preds = %14
  %17 = tail call ptr @H5S_create(i32 noundef 1) #7
  %18 = icmp eq ptr %17, null
  br i1 %18, label %.thread, label %._crit_edge

._crit_edge:                                      ; preds = %16
  %.pre.pre = load ptr, ptr %1, align 8, !tbaa !20
  br label %22

.thread:                                          ; preds = %16
  %19 = load i64, ptr @H5E_DATASPACE_g, align 8, !tbaa !28
  %20 = load i64, ptr @H5E_CANTCREATE_g, align 8, !tbaa !28
  %21 = tail call i32 (ptr, ptr, i32, i64, i64, ptr, ...) @H5E_printf_stack(ptr noundef nonnull @.str, ptr noundef nonnull @__func__.H5S__none_deserialize, i32 noundef 600, i64 noundef %19, i64 noundef %20, ptr noundef nonnull @.str.8) #7
  br label %.thread59

22:                                               ; preds = %._crit_edge, %14
  %.pre = phi ptr [ %.pre.pre, %._crit_edge ], [ %5, %14 ]
  %.1 = phi ptr [ %17, %._crit_edge ], [ %15, %14 ]
  br i1 %3, label %35, label %23

23:                                               ; preds = %22
  %24 = icmp ugt ptr %.pre, %7
  br i1 %24, label %31, label %25

25:                                               ; preds = %23
  %26 = ptrtoint ptr %7 to i64
  %27 = ptrtoint ptr %.pre to i64
  %28 = add i64 %26, 1
  %29 = sub i64 %28, %27
  %30 = icmp ult i64 %29, 4
  br i1 %30, label %31, label %35

31:                                               ; preds = %23, %25
  %32 = load i64, ptr @H5E_DATASPACE_g, align 8, !tbaa !28
  %33 = load i64, ptr @H5E_OVERFLOW_g, align 8, !tbaa !28
  %34 = tail call i32 (ptr, ptr, i32, i64, i64, ptr, ...) @H5E_printf_stack(ptr noundef nonnull @.str, ptr noundef nonnull @__func__.H5S__none_deserialize, i32 noundef 607, i64 noundef %32, i64 noundef %33, ptr noundef nonnull @.str.9) #7
  br label %82

35:                                               ; preds = %25, %22
  %36 = load i8, ptr %.pre, align 1, !tbaa !25
  %37 = zext i8 %36 to i32
  %38 = getelementptr inbounds nuw i8, ptr %.pre, i64 1
  store ptr %38, ptr %1, align 8, !tbaa !20
  %39 = load i8, ptr %38, align 1, !tbaa !25
  %40 = zext i8 %39 to i32
  %41 = shl nuw nsw i32 %40, 8
  %42 = or disjoint i32 %41, %37
  %43 = getelementptr inbounds nuw i8, ptr %.pre, i64 2
  store ptr %43, ptr %1, align 8, !tbaa !20
  %44 = load i8, ptr %43, align 1, !tbaa !25
  %45 = zext i8 %44 to i32
  %46 = shl nuw nsw i32 %45, 16
  %47 = or disjoint i32 %42, %46
  %48 = getelementptr inbounds nuw i8, ptr %.pre, i64 3
  store ptr %48, ptr %1, align 8, !tbaa !20
  %49 = load i8, ptr %48, align 1, !tbaa !25
  %50 = zext i8 %49 to i32
  %51 = shl nuw i32 %50, 24
  %52 = or disjoint i32 %47, %51
  %53 = getelementptr inbounds nuw i8, ptr %.pre, i64 4
  store ptr %53, ptr %1, align 8, !tbaa !20
  %or.cond.not = icmp eq i32 %52, 1
  br i1 %or.cond.not, label %58, label %54

54:                                               ; preds = %35
  %55 = load i64, ptr @H5E_DATASPACE_g, align 8, !tbaa !28
  %56 = load i64, ptr @H5E_BADVALUE_g, align 8, !tbaa !28
  %57 = tail call i32 (ptr, ptr, i32, i64, i64, ptr, ...) @H5E_printf_stack(ptr noundef nonnull @.str, ptr noundef nonnull @__func__.H5S__none_deserialize, i32 noundef 611, i64 noundef %55, i64 noundef %56, ptr noundef nonnull @.str.10) #7
  br label %82

58:                                               ; preds = %35
  br i1 %3, label %71, label %59

59:                                               ; preds = %58
  %60 = icmp ugt ptr %53, %7
  br i1 %60, label %67, label %61

61:                                               ; preds = %59
  %62 = ptrtoint ptr %7 to i64
  %63 = ptrtoint ptr %53 to i64
  %64 = add i64 %62, 1
  %65 = sub i64 %64, %63
  %66 = icmp ult i64 %65, 8
  br i1 %66, label %67, label %71

67:                                               ; preds = %59, %61
  %68 = load i64, ptr @H5E_DATASPACE_g, align 8, !tbaa !28
  %69 = load i64, ptr @H5E_OVERFLOW_g, align 8, !tbaa !28
  %70 = tail call i32 (ptr, ptr, i32, i64, i64, ptr, ...) @H5E_printf_stack(ptr noundef nonnull @.str, ptr noundef nonnull @__func__.H5S__none_deserialize, i32 noundef 615, i64 noundef %68, i64 noundef %69, ptr noundef nonnull @.str.11) #7
  br label %82

71:                                               ; preds = %58, %61
  %72 = getelementptr inbounds nuw i8, ptr %.pre, i64 12
  store ptr %72, ptr %1, align 8, !tbaa !20
  %73 = tail call i32 @H5S_select_none(ptr noundef nonnull %.1)
  %74 = icmp slt i32 %73, 0
  br i1 %74, label %75, label %79

75:                                               ; preds = %71
  %76 = load i64, ptr @H5E_DATASPACE_g, align 8, !tbaa !28
  %77 = load i64, ptr @H5E_CANTDELETE_g, align 8, !tbaa !28
  %78 = tail call i32 (ptr, ptr, i32, i64, i64, ptr, ...) @H5E_printf_stack(ptr noundef nonnull @.str, ptr noundef nonnull @__func__.H5S__none_deserialize, i32 noundef 620, i64 noundef %76, i64 noundef %77, ptr noundef nonnull @.str.6) #7
  br label %82

79:                                               ; preds = %71
  %80 = load ptr, ptr %0, align 8, !tbaa !26
  %.not53 = icmp eq ptr %80, null
  br i1 %.not53, label %81, label %.thread59

81:                                               ; preds = %79
  store ptr %.1, ptr %0, align 8, !tbaa !26
  br label %.thread59

82:                                               ; preds = %75, %67, %54, %31
  %.pr = load ptr, ptr %0, align 8, !tbaa !26
  %83 = icmp eq ptr %.pr, null
  br i1 %83, label %84, label %.thread59

84:                                               ; preds = %82
  %85 = tail call i32 @H5S_close(ptr noundef nonnull %.1) #7
  %86 = icmp slt i32 %85, 0
  br i1 %86, label %87, label %.thread59

87:                                               ; preds = %84
  %88 = load i64, ptr @H5E_DATASPACE_g, align 8, !tbaa !28
  %89 = load i64, ptr @H5E_CANTFREE_g, align 8, !tbaa !28
  %90 = tail call i32 (ptr, ptr, i32, i64, i64, ptr, ...) @H5E_printf_stack(ptr noundef nonnull @.str, ptr noundef nonnull @__func__.H5S__none_deserialize, i32 noundef 630, i64 noundef %88, i64 noundef %89, ptr noundef nonnull @.str.12) #7
  br label %.thread59

.thread59:                                        ; preds = %81, %79, %.thread, %82, %87, %84, %4
  %.044 = phi i32 [ -1, %87 ], [ -1, %84 ], [ -1, %82 ], [ 0, %4 ], [ -1, %.thread ], [ 0, %79 ], [ 0, %81 ]
  ret i32 %.044
}